target datalayout = "e-m:e-p270:32:32-p271:32:32-p272:64:64-i64:64-i128:128-f80:128-n8:16:32:64-S128"
target triple = "x86_64-pc-linux-gnu"

%struct.vars = type { ptr, ptr, ptr, i32, i32, i32, i32, i32, i32, i32, ptr, i64, [10 x ptr], ptr, ptr, i16, ptr, ptr, ptr, ptr, i32, ptr, ptr, ptr, i32, i64 }
%struct.pg_regex_t = type { i32, i64, i64, i32, ptr, i32, ptr, ptr }
%struct.cvec = type { i32, i32, ptr, i32, i32, ptr, i32 }
%struct.cname = type { ptr, i8 }

; Function Attrs: nounwind uwtable
define internal i32 @element(ptr noundef %0, ptr noundef %1, ptr noundef %2) #0 {
  %4 = alloca i32, align 4
  %5 = alloca ptr, align 8
  %6 = alloca ptr, align 8
  %7 = alloca ptr, align 8
  %8 = alloca ptr, align 8
  %9 = alloca i64, align 8
  %10 = alloca i32, align 4
  store ptr %0, ptr %5, align 8
  store ptr %1, ptr %6, align 8
  store ptr %2, ptr %7, align 8
  call void @llvm.lifetime.start.p0(i64 8, ptr %8) #12
  call void @llvm.lifetime.start.p0(i64 8, ptr %9) #12
  %11 = load ptr, ptr %7, align 8
  %12 = load ptr, ptr %6, align 8
  %13 = ptrtoint ptr %11 to i64
  %14 = ptrtoint ptr %12 to i64
  %15 = sub i64 %13, %14
  %16 = sdiv exact i64 %15, 4
  store i64 %16, ptr %9, align 8
  %17 = load i64, ptr %9, align 8
  %18 = icmp eq i64 %17, 1
  br i1 %18, label %19, label %22

19:                                               ; preds = %3
  %20 = load ptr, ptr %6, align 8
  %21 = load i32, ptr %20, align 4
  store i32 %21, ptr %4, align 4
  store i32 1, ptr %10, align 4
  br label %80

22:                                               ; preds = %3
  %23 = load ptr, ptr %5, align 8
  %24 = getelementptr inbounds nuw %struct.vars, ptr %23, i32 0, i32 0
  %25 = load ptr, ptr %24, align 8
  %26 = getelementptr inbounds nuw %struct.pg_regex_t, ptr %25, i32 0, i32 2
  %27 = load i64, ptr %26, align 8
  %28 = or i64 %27, 1024
  store i64 %28, ptr %26, align 8
  store ptr @cnames, ptr %8, align 8
  br label %29

29:                                               ; preds = %51, %22
  %30 = load ptr, ptr %8, align 8
  %31 = getelementptr inbounds nuw %struct.cname, ptr %30, i32 0, i32 0
  %32 = load ptr, ptr %31, align 8
  %33 = icmp ne ptr %32, null
  br i1 %33, label %34, label %54

34:                                               ; preds = %29
  %35 = load ptr, ptr %8, align 8
  %36 = getelementptr inbounds nuw %struct.cname, ptr %35, i32 0, i32 0
  %37 = load ptr, ptr %36, align 8
  %38 = call i64 @strlen(ptr noundef %37) #14
  %39 = load i64, ptr %9, align 8
  %40 = icmp eq i64 %38, %39
  br i1 %40, label %41, label %50

41:                                               ; preds = %34
  %42 = load ptr, ptr %8, align 8
  %43 = getelementptr inbounds nuw %struct.cname, ptr %42, i32 0, i32 0
  %44 = load ptr, ptr %43, align 8
  %45 = load ptr, ptr %6, align 8
  %46 = load i64, ptr %9, align 8
  %47 = call i32 @pg_char_and_wchar_strncmp(ptr noundef %44, ptr noundef %45, i64 noundef %46)
  %48 = icmp eq i32 %47, 0
  br i1 %48, label %49, label %50

49:                                               ; preds = %41
  br label %54

50:                                               ; preds = %41, %34
  br label %51

51:                                               ; preds = %50
  %52 = load ptr, ptr %8, align 8
  %53 = getelementptr inbounds nuw %struct.cname, ptr %52, i32 1
  store ptr %53, ptr %8, align 8
  br label %29, !llvm.loop !78

54:                                               ; preds = %49, %29
  %55 = load ptr, ptr %8, align 8
  %56 = getelementptr inbounds nuw %struct.cname, ptr %55, i32 0, i32 0
  %57 = load ptr, ptr %56, align 8
  %58 = icmp ne ptr %57, null
  br i1 %58, label %59, label %64

59:                                               ; preds = %54
  %60 = load ptr, ptr %8, align 8
  %61 = getelementptr inbounds nuw %struct.cname, ptr %60, i32 0, i32 1
  %62 = load i8, ptr %61, align 8
  %63 = zext i8 %62 to i32
  store i32 %63, ptr %4, align 4
  store i32 1, ptr %10, align 4
  br label %80

64:                                               ; preds = %54
  %65 = load ptr, ptr %5, align 8
  %66 = getelementptr inbounds nuw %struct.vars, ptr %65, i32 0, i32 6
  store i32 101, ptr %66, align 4
  %67 = load ptr, ptr %5, align 8
  %68 = getelementptr inbounds nuw %struct.vars, ptr %67, i32 0, i32 3
  %69 = load i32, ptr %68, align 8
  %70 = icmp ne i32 %69, 0
  br i1 %70, label %71, label %75

71:                                               ; preds = %64
  %72 = load ptr, ptr %5, align 8
  %73 = getelementptr inbounds nuw %struct.vars, ptr %72, i32 0, i32 3
  %74 = load i32, ptr %73, align 8
  br label %76

75:                                               ; preds = %64
  br label %76

76:                                               ; preds = %75, %71
  %77 = phi i32 [ %74, %71 ], [ 3, %75 ]
  %78 = load ptr, ptr %5, align 8
  %79 = getelementptr inbounds nuw %struct.vars, ptr %78, i32 0, i32 3
  store i32 %77, ptr %79, align 8
  store i32 0, ptr %4, align 4
  store i32 1, ptr %10, align 4
  br label %80

80:                                               ; preds = %76, %59, %19
  call void @llvm.lifetime.end.p0(i64 8, ptr %9) #12
  call void @llvm.lifetime.end.p0(i64 8, ptr %8) #12
  %81 = load i32, ptr %4, align 4
  ret i32 %81
}

; Function Attrs: nounwind uwtable
define internal i32 @chrnamed(ptr noundef %0, ptr noundef %1, ptr noundef %2, i32 noundef %3) #0 {
  %5 = alloca i32, align 4
  %6 = alloca ptr, align 8
  %7 = alloca ptr, align 8
  %8 = alloca ptr, align 8
  %9 = alloca i32, align 4
  %10 = alloca i32, align 4
  %11 = alloca i32, align 4
  %12 = alloca i32, align 4
  %13 = alloca ptr, align 8
  %14 = alloca i32, align 4
  store ptr %0, ptr %6, align 8
  store ptr %1, ptr %7, align 8
  store ptr %2, ptr %8, align 8
  store i32 %3, ptr %9, align 4
  call void @llvm.lifetime.start.p0(i64 4, ptr %10) #12
  call void @llvm.lifetime.start.p0(i64 4, ptr %11) #12
  call void @llvm.lifetime.start.p0(i64 4, ptr %12) #12
  call void @llvm.lifetime.start.p0(i64 8, ptr %13) #12
  %15 = load ptr, ptr %6, align 8
  %16 = getelementptr inbounds nuw %struct.vars, ptr %15, i32 0, i32 3
  %17 = load i32, ptr %16, align 8
  store i32 %17, ptr %11, align 4
  %18 = load ptr, ptr %6, align 8
  %19 = getelementptr inbounds nuw %struct.vars, ptr %18, i32 0, i32 3
  store i32 0, ptr %19, align 8
  %20 = load ptr, ptr %6, align 8
  %21 = load ptr, ptr %7, align 8
  %22 = load ptr, ptr %8, align 8
  %23 = call i32 @element(ptr noundef %20, ptr noundef %21, ptr noundef %22)
  store i32 %23, ptr %10, align 4
  %24 = load ptr, ptr %6, align 8
  %25 = getelementptr inbounds nuw %struct.vars, ptr %24, i32 0, i32 3
  %26 = load i32, ptr %25, align 8
  store i32 %26, ptr %12, align 4
  %27 = load i32, ptr %11, align 4
  %28 = load ptr, ptr %6, align 8
  %29 = getelementptr inbounds nuw %struct.vars, ptr %28, i32 0, i32 3
  store i32 %27, ptr %29, align 8
  %30 = load i32, ptr %12, align 4
  %31 = icmp ne i32 %30, 0
  br i1 %31, label %32, label %34

32:                                               ; preds = %4
  %33 = load i32, ptr %9, align 4
  store i32 %33, ptr %5, align 4
  store i32 1, ptr %14, align 4
  br label %51

34:                                               ; preds = %4
  %35 = load ptr, ptr %6, align 8
  %36 = load i32, ptr %10, align 4
  %37 = load i32, ptr %10, align 4
  %38 = call ptr @range(ptr noundef %35, i32 noundef %36, i32 noundef %37, i32 noundef 0)
  store ptr %38, ptr %13, align 8
  %39 = load ptr, ptr %13, align 8
  %40 = getelementptr inbounds nuw %struct.cvec, ptr %39, i32 0, i32 0
  %41 = load i32, ptr %40, align 8
  %42 = icmp eq i32 %41, 0
  br i1 %42, label %43, label %45

43:                                               ; preds = %34
  %44 = load i32, ptr %9, align 4
  store i32 %44, ptr %5, align 4
  store i32 1, ptr %14, align 4
  br label %51

45:                                               ; preds = %34
  %46 = load ptr, ptr %13, align 8
  %47 = getelementptr inbounds nuw %struct.cvec, ptr %46, i32 0, i32 2
  %48 = load ptr, ptr %47, align 8
  %49 = getelementptr inbounds i32, ptr %48, i64 0
  %50 = load i32, ptr %49, align 4
  store i32 %50, ptr %5, align 4
  store i32 1, ptr %14, align 4
  br label %51

51:                                               ; preds = %45, %43, %32
  call void @llvm.lifetime.end.p0(i64 8, ptr %13) #12
  call void @llvm.lifetime.end.p0(i64 4, ptr %12) #12
  call void @llvm.lifetime.end.p0(i64 4, ptr %11) #12
  call void @llvm.lifetime.end.p0(i64 4, ptr %10) #12
  %52 = load i32, ptr %5, align 4
  ret i32 %52
}