; Function Attrs: nounwind uwtable
define internal fastcc i32 @chrnamed(ptr noundef nonnull captures(none) %0, ptr noundef %1, ptr noundef %2, i32 noundef range(i32 7, 28) %3) unnamed_addr #0 {
  %5 = getelementptr inbounds nuw i8, ptr %0, i64 24
  %6 = load i32, ptr %5, align 8
  store i32 0, ptr %5, align 8
  %7 = ptrtoint ptr %2 to i64
  %8 = ptrtoint ptr %1 to i64
  %9 = sub i64 %7, %8
  %10 = ashr exact i64 %9, 2
  %11 = icmp eq i64 %9, 4
  br i1 %11, label %element.exit.thread21, label %13

element.exit.thread21:                            ; preds = %4
  %12 = load i32, ptr %1, align 4
  store i32 %6, ptr %5, align 8
  br label %33

13:                                               ; preds = %4
  %14 = load ptr, ptr %0, align 8
  %15 = getelementptr inbounds nuw i8, ptr %14, i64 16
  %16 = load i64, ptr %15, align 8
  %17 = or i64 %16, 1024
  store i64 %17, ptr %15, align 8
  br label %18

18:                                               ; preds = %25, %13
  %19 = phi ptr [ @.str.4, %13 ], [ %27, %25 ]
  %.01825.i = phi ptr [ @cnames, %13 ], [ %26, %25 ]
  %20 = tail call i64 @strlen(ptr noundef nonnull dereferenceable(1) %19) #22
  %21 = icmp eq i64 %20, %10
  br i1 %21, label %22, label %25

22:                                               ; preds = %18
  %23 = tail call i32 @pg_char_and_wchar_strncmp(ptr noundef nonnull %19, ptr noundef %1, i64 noundef %10) #20
  %24 = icmp eq i32 %23, 0
  br i1 %24, label %element.exit, label %25

25:                                               ; preds = %22, %18
  %26 = getelementptr inbounds nuw i8, ptr %.01825.i, i64 16
  %27 = load ptr, ptr %26, align 8
  %.not.i = icmp eq ptr %27, null
  br i1 %.not.i, label %element.exit.thread, label %18, !llvm.loop !102

element.exit.thread:                              ; preds = %25
  %28 = getelementptr inbounds nuw i8, ptr %0, i64 36
  store i32 101, ptr %28, align 4
  store i32 %6, ptr %5, align 8
  br label %41

element.exit:                                     ; preds = %22
  %29 = getelementptr inbounds nuw i8, ptr %.01825.i, i64 8
  %30 = load i8, ptr %29, align 8
  %31 = zext i8 %30 to i32
  %.pr.pre = load i32, ptr %5, align 8
  %32 = icmp eq i32 %.pr.pre, 0
  store i32 %6, ptr %5, align 8
  br i1 %32, label %33, label %41

33:                                               ; preds = %element.exit.thread21, %element.exit
  %.0.i.ph24 = phi i32 [ %12, %element.exit.thread21 ], [ %31, %element.exit ]
  %34 = tail call fastcc ptr @range(ptr noundef %0, i32 noundef %.0.i.ph24, i32 noundef %.0.i.ph24, i32 noundef 0)
  %35 = load i32, ptr %34, align 8
  %36 = icmp eq i32 %35, 0
  br i1 %36, label %41, label %37

37:                                               ; preds = %33
  %38 = getelementptr inbounds nuw i8, ptr %34, i64 8
  %39 = load ptr, ptr %38, align 8
  %40 = load i32, ptr %39, align 4
  br label %41

41:                                               ; preds = %element.exit.thread, %33, %element.exit, %37
  %.0 = phi i32 [ %40, %37 ], [ %3, %element.exit ], [ %3, %33 ], [ %3, %element.exit.thread ]
  ret i32 %.0
}